target datalayout = "e-m:e-p270:32:32-p271:32:32-p272:64:64-i64:64-i128:128-f80:128-n8:16:32:64-S128"
target triple = "x86_64-unknown-linux-gnu"

%struct.VirtIOBlockDataPlane = type { i8, i8, ptr, ptr, ptr, ptr }
%struct.VirtIOBlkConf = type { %struct.BlockConf, ptr, ptr, i32, i16, i16, i8, i8, i32, i32, i8 }
%struct.BlockConf = type { ptr, i32, i32, i32, i32, i32, i32, i32, i32, i32, i32, i32, i32, i32, i32, i8, i32, i32, i32, i32 }
%struct.VirtIOBlock = type { %struct.VirtIODevice, ptr, ptr, %struct.VirtIOBlkConf, i16, i8, ptr, i8, i8, ptr, i64, i64, %struct.BlockRAMRegistrar }
%struct.VirtIODevice = type { %struct.DeviceState, ptr, i8, i8, i16, i64, i64, i64, i64, ptr, i16, i32, i32, ptr, %struct.MemoryListener, i16, i8, i8, i8, i8, i8, i8, i8, i8, i8, ptr, ptr, i8, i8, ptr, ptr, %union.anon.1, %struct.EventNotifier, i8 }
%struct.DeviceState = type { %struct.Object, ptr, ptr, i8, i8, i64, ptr, i32, i8, ptr, %struct.NamedGPIOListHead, %struct.NamedClockListHead, %struct.BusStateHead, i32, i32, i32, %struct.ResettableState, ptr, %struct.MemReentrancyGuard }
%struct.Object = type { ptr, ptr, ptr, i32, ptr }
%struct.NamedGPIOListHead = type { ptr }
%struct.NamedClockListHead = type { ptr }
%struct.BusStateHead = type { ptr }
%struct.ResettableState = type { i32, i8, i8 }
%struct.MemReentrancyGuard = type { i8 }
%struct.MemoryListener = type { ptr, ptr, ptr, ptr, ptr, ptr, ptr, ptr, ptr, ptr, ptr, ptr, ptr, ptr, ptr, ptr, ptr, i32, ptr, ptr, %union.anon, %union.anon.0 }
%union.anon = type { %struct.QTailQLink }
%struct.QTailQLink = type { ptr, ptr }
%union.anon.0 = type { %struct.QTailQLink }
%union.anon.1 = type { %struct.QTailQLink }
%struct.EventNotifier = type { i32, i32, i8 }
%struct.BlockRAMRegistrar = type { ptr, %struct.RAMBlockNotifier, i8 }
%struct.RAMBlockNotifier = type { ptr, ptr, ptr, %struct.anon }
%struct.anon = type { ptr, ptr }

@.str = private unnamed_addr constant [40 x i8] c"../qemu/hw/block/dataplane/virtio-blk.c\00", align 1
@.str.4 = private unnamed_addr constant [25 x i8] c"!vblk->dataplane_started\00", align 1
@__PRETTY_FUNCTION__.virtio_blk_data_plane_destroy = private unnamed_addr constant [59 x i8] c"void virtio_blk_data_plane_destroy(VirtIOBlockDataPlane *)\00", align 1
@.str.12 = private unnamed_addr constant [18 x i8] c"virtio-blk-device\00", align 1
@.str.13 = private unnamed_addr constant [109 x i8] c"/home/dtcxzyw/WorkSpace/Projects/compilers/llvm-opt-benchmark/bench/qemu/qemu/include/hw/virtio/virtio-blk.h\00", align 1
@__func__.VIRTIO_BLK = private unnamed_addr constant [11 x i8] c"VIRTIO_BLK\00", align 1

; Function Attrs: nounwind sspstrong uwtable
define internal ptr @VIRTIO_BLK(ptr noundef %obj) #0 {
entry:
  %obj.addr = alloca ptr, align 8
  store ptr %obj, ptr %obj.addr, align 8
  %0 = load ptr, ptr %obj.addr, align 8
  %call = call ptr @object_dynamic_cast_assert(ptr noundef %0, ptr noundef @.str.12, ptr noundef @.str.13, i32 noundef 26, ptr noundef @__func__.VIRTIO_BLK)
  ret ptr %call
}

; Function Attrs: nounwind sspstrong uwtable
define dso_local void @virtio_blk_data_plane_destroy(ptr noundef %s) #0 {
entry:
  %s.addr = alloca ptr, align 8
  %vblk = alloca ptr, align 8
  store ptr %s, ptr %s.addr, align 8
  %0 = load ptr, ptr %s.addr, align 8
  %tobool = icmp ne ptr %0, null
  br i1 %tobool, label %if.end, label %if.then

if.then:                                          ; preds = %entry
  br label %return

if.end:                                           ; preds = %entry
  %1 = load ptr, ptr %s.addr, align 8
  %vdev = getelementptr inbounds %struct.VirtIOBlockDataPlane, ptr %1, i32 0, i32 3
  %2 = load ptr, ptr %vdev, align 8
  %call = call ptr @VIRTIO_BLK(ptr noundef %2)
  store ptr %call, ptr %vblk, align 8
  %3 = load ptr, ptr %vblk, align 8
  %dataplane_started = getelementptr inbounds %struct.VirtIOBlock, ptr %3, i32 0, i32 8
  %4 = load i8, ptr %dataplane_started, align 1
  %tobool1 = trunc i8 %4 to i1
  br i1 %tobool1, label %if.else, label %if.then2

if.then2:                                         ; preds = %if.end
  br label %if.end3

if.else:                                          ; preds = %if.end
  call void @__assert_fail(ptr noundef @.str.4, ptr noundef @.str, i32 noundef 113, ptr noundef @__PRETTY_FUNCTION__.virtio_blk_data_plane_destroy) #6
  unreachable

if.end3:                                          ; preds = %if.then2
  %5 = load ptr, ptr %s.addr, align 8
  %iothread = getelementptr inbounds %struct.VirtIOBlockDataPlane, ptr %5, i32 0, i32 4
  %6 = load ptr, ptr %iothread, align 8
  %tobool4 = icmp ne ptr %6, null
  br i1 %tobool4, label %if.then5, label %if.end7

if.then5:                                         ; preds = %if.end3
  %7 = load ptr, ptr %s.addr, align 8
  %iothread6 = getelementptr inbounds %struct.VirtIOBlockDataPlane, ptr %7, i32 0, i32 4
  %8 = load ptr, ptr %iothread6, align 8
  call void @object_unref(ptr noundef %8)
  br label %if.end7

if.end7:                                          ; preds = %if.then5, %if.end3
  %9 = load ptr, ptr %s.addr, align 8
  call void @g_free(ptr noundef %9)
  br label %return

return:                                           ; preds = %if.end7, %if.then
  ret void
}