; Function Attrs: nounwind sspstrong uwtable
define dso_local void @virtio_blk_data_plane_destroy(ptr noundef %s) local_unnamed_addr #0 {
entry:
  %tobool.not = icmp eq ptr %s, null
  br i1 %tobool.not, label %return, label %if.end

if.end:                                           ; preds = %entry
  %vdev = getelementptr inbounds nuw i8, ptr %s, i64 16
  %0 = load ptr, ptr %vdev, align 8
  %call.i = tail call ptr @object_dynamic_cast_assert(ptr noundef %0, ptr noundef nonnull @.str.12, ptr noundef nonnull @.str.13, i32 noundef 26, ptr noundef nonnull @__func__.VIRTIO_BLK) #6
  %dataplane_started = getelementptr inbounds nuw i8, ptr %call.i, i64 681
  %1 = load i8, ptr %dataplane_started, align 1
  %tobool1 = trunc i8 %1 to i1
  br i1 %tobool1, label %if.else, label %if.end3

if.else:                                          ; preds = %if.end
  tail call void @__assert_fail(ptr noundef nonnull @.str.4, ptr noundef nonnull @.str, i32 noundef 113, ptr noundef nonnull @__PRETTY_FUNCTION__.virtio_blk_data_plane_destroy) #8
  unreachable

if.end3:                                          ; preds = %if.end
  %iothread = getelementptr inbounds nuw i8, ptr %s, i64 24
  %2 = load ptr, ptr %iothread, align 8
  %tobool4.not = icmp eq ptr %2, null
  br i1 %tobool4.not, label %if.end7, label %if.then5

if.then5:                                         ; preds = %if.end3
  tail call void @object_unref(ptr noundef nonnull %2) #6
  br label %if.end7

if.end7:                                          ; preds = %if.then5, %if.end3
  tail call void @g_free(ptr noundef nonnull %s) #6
  br label %return

return:                                           ; preds = %entry, %if.end7
  ret void
}